target datalayout = "e-m:e-p270:32:32-p271:32:32-p272:64:64-i64:64-i128:128-f80:128-n8:16:32:64-S128"
target triple = "x86_64-unknown-linux-gnu"

@.str = private unnamed_addr constant [33 x i8] c"../qemu/migration/postcopy-ram.c\00", align 1
@.str.54 = private unnamed_addr constant [46 x i8] c"QEMU_IS_ALIGNED(start, qemu_ram_pagesize(rb))\00", align 1
@__PRETTY_FUNCTION__.postcopy_request_page = private unnamed_addr constant [86 x i8] c"int postcopy_request_page(MigrationIncomingState *, RAMBlock *, ram_addr_t, uint64_t)\00", align 1

; Function Attrs: nounwind sspstrong uwtable
define internal i32 @postcopy_request_page(ptr noundef %mis, ptr noundef %rb, i64 noundef %start, i64 noundef %haddr) #0 {
entry:
  %retval = alloca i32, align 4
  %mis.addr = alloca ptr, align 8
  %rb.addr = alloca ptr, align 8
  %start.addr = alloca i64, align 8
  %haddr.addr = alloca i64, align 8
  %aligned = alloca ptr, align 8
  %received = alloca i8, align 1
  store ptr %mis, ptr %mis.addr, align 8
  store ptr %rb, ptr %rb.addr, align 8
  store i64 %start, ptr %start.addr, align 8
  store i64 %haddr, ptr %haddr.addr, align 8
  %0 = load i64, ptr %haddr.addr, align 8
  %1 = load ptr, ptr %rb.addr, align 8
  %call = call i64 @qemu_ram_pagesize(ptr noundef %1)
  %sub = sub i64 0, %call
  %and = and i64 %0, %sub
  %2 = inttoptr i64 %and to ptr
  store ptr %2, ptr %aligned, align 8
  %3 = load i64, ptr %start.addr, align 8
  %4 = load ptr, ptr %rb.addr, align 8
  %call1 = call i64 @qemu_ram_pagesize(ptr noundef %4)
  %rem = urem i64 %3, %call1
  %cmp = icmp eq i64 %rem, 0
  br i1 %cmp, label %if.then, label %if.else

if.then:                                          ; preds = %entry
  br label %if.end

if.else:                                          ; preds = %entry
  call void @__assert_fail(ptr noundef @.str.54, ptr noundef @.str, i32 noundef 779, ptr noundef @__PRETTY_FUNCTION__.postcopy_request_page) #13
  unreachable

if.end:                                           ; preds = %if.then
  %5 = load ptr, ptr %rb.addr, align 8
  %6 = load i64, ptr %start.addr, align 8
  %call2 = call zeroext i1 @ramblock_page_is_discarded(ptr noundef %5, i64 noundef %6)
  br i1 %call2, label %if.then3, label %if.end6

if.then3:                                         ; preds = %if.end
  %7 = load ptr, ptr %rb.addr, align 8
  %8 = load i64, ptr %start.addr, align 8
  %call4 = call zeroext i1 @ramblock_recv_bitmap_test_byte_offset(ptr noundef %7, i64 noundef %8)
  %frombool = zext i1 %call4 to i8
  store i8 %frombool, ptr %received, align 1
  %9 = load i8, ptr %received, align 1
  %tobool = trunc i8 %9 to i1
  br i1 %tobool, label %cond.true, label %cond.false

cond.true:                                        ; preds = %if.then3
  br label %cond.end

cond.false:                                       ; preds = %if.then3
  %10 = load ptr, ptr %mis.addr, align 8
  %11 = load ptr, ptr %aligned, align 8
  %12 = load ptr, ptr %rb.addr, align 8
  %call5 = call i32 @postcopy_place_page_zero(ptr noundef %10, ptr noundef %11, ptr noundef %12)
  br label %cond.end

cond.end:                                         ; preds = %cond.false, %cond.true
  %cond = phi i32 [ 0, %cond.true ], [ %call5, %cond.false ]
  store i32 %cond, ptr %retval, align 4
  br label %return

if.end6:                                          ; preds = %if.end
  %13 = load ptr, ptr %mis.addr, align 8
  %14 = load ptr, ptr %rb.addr, align 8
  %15 = load i64, ptr %start.addr, align 8
  %16 = load i64, ptr %haddr.addr, align 8
  %call7 = call i32 @migrate_send_rp_req_pages(ptr noundef %13, ptr noundef %14, i64 noundef %15, i64 noundef %16)
  store i32 %call7, ptr %retval, align 4
  br label %return

return:                                           ; preds = %if.end6, %cond.end
  %17 = load i32, ptr %retval, align 4
  ret i32 %17
}