; Function Attrs: nounwind sspstrong uwtable
define internal fastcc void @postcopy_request_page(ptr noundef %mis, ptr noundef %rb, i64 noundef %start, i64 noundef %haddr) unnamed_addr #0 {
entry:
  %call = tail call i64 @qemu_ram_pagesize(ptr noundef %rb) #16
  %sub = sub i64 0, %call
  %and = and i64 %haddr, %sub
  %0 = inttoptr i64 %and to ptr
  %call1 = tail call i64 @qemu_ram_pagesize(ptr noundef %rb) #16
  %rem = urem i64 %start, %call1
  %cmp = icmp eq i64 %rem, 0
  br i1 %cmp, label %if.end, label %if.else

if.else:                                          ; preds = %entry
  tail call void @__assert_fail(ptr noundef nonnull @.str.54, ptr noundef nonnull @.str, i32 noundef 779, ptr noundef nonnull @__PRETTY_FUNCTION__.postcopy_request_page) #19
  unreachable

if.end:                                           ; preds = %entry
  %call2 = tail call zeroext i1 @ramblock_page_is_discarded(ptr noundef %rb, i64 noundef %start) #16
  br i1 %call2, label %if.then3, label %if.end6

if.then3:                                         ; preds = %if.end
  %call4 = tail call zeroext i1 @ramblock_recv_bitmap_test_byte_offset(ptr noundef %rb, i64 noundef %start) #16
  br i1 %call4, label %return, label %cond.false

cond.false:                                       ; preds = %if.then3
  %call5 = tail call i32 @postcopy_place_page_zero(ptr noundef %mis, ptr noundef %0, ptr noundef %rb)
  br label %return

if.end6:                                          ; preds = %if.end
  %call7 = tail call i32 @migrate_send_rp_req_pages(ptr noundef %mis, ptr noundef %rb, i64 noundef %start, i64 noundef %haddr) #16
  br label %return

return:                                           ; preds = %cond.false, %if.then3, %if.end6
  ret void
}